; Function Attrs: mustprogress nofree norecurse nosync nounwind willreturn memory(argmem: readwrite) uwtable
define noundef i32 @_ZNK6icu_778Collator23internalNextSortKeyPartEP13UCharIteratorPjPhiR10UErrorCode(ptr nonnull readnone align 8 captures(none) %0, ptr readnone captures(none) %1, ptr readnone captures(none) %2, ptr readnone captures(none) %3, i32 %4, ptr noundef nonnull align 4 captures(none) dereferenceable(4) %5) unnamed_addr #8 align 2 {
  %7 = load i32, ptr %5, align 4, !tbaa !6
  %8 = icmp sgt i32 %7, 0
  br i1 %8, label %10, label %9

9:                                                ; preds = %6
  store i32 16, ptr %5, align 4, !tbaa !6
  br label %10

10:                                               ; preds = %9, %6
  ret i32 0
}